; c_power_intel.s
; Copyright (C) 2012, 2017, 2018 Eric Herman <eric@freesa.org>
;
; This library is free software; you can redistribute it and/or
; modify it under the terms of the GNU Lesser General Public
; License as published by the Free Software Foundation; either
; version 2.1 of the License, or (at your option) any later version.
;
; This library is distributed in the hope that it will be useful,
; but WITHOUT ANY WARRANTY; without even the implied warranty of
; MERCHANTABILITY or FITNESS FOR A PARTICULAR PURPOSE.  See the GNU
; Lesser General Public License for more details.
;
;	https://www.gnu.org/licenses/lgpl-2.1.txt

	.file	"c_power.c"
	.text
	.globl	power
	.type	power, @function
power:
.LFB0:
	.cfi_startproc
	pushl	%ebp
	.cfi_def_cfa_offset 8
	.cfi_offset 5, -8
	movl	%esp, %ebp
	.cfi_def_cfa_register 5
	subl	$16, %esp
	movl	$1, -4(%ebp)
	movl	$0, -8(%ebp)
	jmp	.L2
.L3:
	movl	-4(%ebp), %eax
	imull	8(%ebp), %eax
	movl	%eax, -4(%ebp)
	addl	$1, -8(%ebp)
.L2:
	movl	-8(%ebp), %eax
	cmpl	12(%ebp), %eax
	jl	.L3
	movl	-4(%ebp), %eax
	leave
	.cfi_restore 5
	.cfi_def_cfa 4, 4
	ret
	.cfi_endproc
.LFE0:
	.size	power, .-power
	.ident	"GCC: (GNU) 6.2.0"
	.section	.note.GNU-stack,"",@progbits
